	.cpu generic+fp+simd
	.file	"hisi-blk-flush.c"
	.text
.Ltext0:
	.cfi_sections	.debug_frame
	.section	.init.text,"ax",%progbits
	.align	2
	.type	hisi_blk_flush_init, %function
hisi_blk_flush_init:
.LFB2977:
	.file 1 "/mnt/disk/jenkins/ci/workspace/chipset_pipeline_release/opensource/component_code/vendor/huawei/extra/build/build_script/kirin_kernel_release/kernel/block/hisi-blk-flush.c"
	.loc 1 136 0
	.cfi_startproc
	.loc 1 138 0
	mov	w0, 0
	ret
	.cfi_endproc
.LFE2977:
	.size	hisi_blk_flush_init, .-hisi_blk_flush_init
	.section	.exit.text,"ax",%progbits
	.align	2
	.type	hisi_blk_flush_exit, %function
hisi_blk_flush_exit:
.LFB2978:
	.loc 1 140 0
	.cfi_startproc
	.loc 1 140 0
	ret
	.cfi_endproc
.LFE2978:
	.size	hisi_blk_flush_exit, .-hisi_blk_flush_exit
	.text
	.align	2
	.global	blk_mq_tagset_direct_flush_register
	.type	blk_mq_tagset_direct_flush_register, %function
blk_mq_tagset_direct_flush_register:
.LFB2981:
	.loc 1 176 0
	.cfi_startproc
.LVL0:
	.loc 1 177 0
	str	x1, [x0,72]
	.loc 1 178 0
	ret
	.cfi_endproc
.LFE2981:
	.size	blk_mq_tagset_direct_flush_register, .-blk_mq_tagset_direct_flush_register
	.align	2
	.global	blk_flush_set_async
	.type	blk_flush_set_async, %function
blk_flush_set_async:
.LFB2984:
	.loc 1 219 0
	.cfi_startproc
.LVL1:
	.loc 1 220 0
	mov	w1, 1
	strb	w1, [x0,146]
	.loc 1 221 0
	ret
	.cfi_endproc
.LFE2984:
	.size	blk_flush_set_async, .-blk_flush_set_async
	.align	2
	.global	blk_mq_tagset_flush_reduce_config
	.type	blk_mq_tagset_flush_reduce_config, %function
blk_mq_tagset_flush_reduce_config:
.LFB2986:
	.loc 1 243 0
	.cfi_startproc
.LVL2:
	.loc 1 243 0
	uxtb	w1, w1
	.loc 1 244 0
	cbnz	w1, .L9
	.loc 1 247 0
	ldr	x1, [x0,40]
.LVL3:
	and	x1, x1, -9
	str	x1, [x0,40]
	.loc 1 248 0
	ret
.LVL4:
.L9:
	.loc 1 245 0
	ldr	x1, [x0,40]
.LVL5:
	orr	x1, x1, 8
	str	x1, [x0,40]
	.loc 1 248 0
	ret
	.cfi_endproc
.LFE2986:
	.size	blk_mq_tagset_flush_reduce_config, .-blk_mq_tagset_flush_reduce_config
	.align	2
	.global	blk_flush_async_support
	.type	blk_flush_async_support, %function
blk_flush_async_support:
.LFB2987:
	.loc 1 255 0
	.cfi_startproc
.LVL6:
.LBB143:
.LBB144:
	.file 2 "/mnt/disk/jenkins/ci/workspace/chipset_pipeline_release/opensource/component_code/vendor/huawei/extra/build/build_script/kirin_kernel_release/kernel/include/linux/blkdev.h"
	.loc 2 1264 0
	ldr	x0, [x0,168]
.LVL7:
.LBE144:
.LBE143:
	.loc 1 258 0
	ldr	x0, [x0,1048]
	.loc 1 259 0
	ldrb	w0, [x0,1232]
	ret
	.cfi_endproc
.LFE2987:
	.size	blk_flush_async_support, .-blk_flush_async_support
	.align	2
	.global	blk_queue_flush_async_support
	.type	blk_queue_flush_async_support, %function
blk_queue_flush_async_support:
.LFB2988:
	.loc 1 266 0
	.cfi_startproc
.LVL8:
	.loc 1 268 0
	ldrb	w0, [x0,1232]
.LVL9:
	ret
	.cfi_endproc
.LFE2988:
	.size	blk_queue_flush_async_support, .-blk_queue_flush_async_support
	.align	2
	.global	blk_queue_flush_reduce_config
	.type	blk_queue_flush_reduce_config, %function
blk_queue_flush_reduce_config:
.LFB2985:
	.loc 1 228 0
	.cfi_startproc
.LVL10:
	stp	x29, x30, [sp, -32]!
	.cfi_def_cfa_offset 32
	.cfi_offset 29, -32
	.cfi_offset 30, -24
	add	x29, sp, 0
	.cfi_def_cfa_register 29
	stp	x19, x20, [sp,16]
	.cfi_offset 19, -16
	.cfi_offset 20, -8
	.loc 1 228 0
	uxtb	w19, w1
.LVL11:
	mov	x20, x0
	.loc 1 229 0
	bl	hisi_blk_get_lld
.LVL12:
	.loc 1 232 0
	ldr	x2, [x0,24]
	.loc 1 231 0
	cbnz	w19, .L15
	.loc 1 234 0
	and	x2, x2, -9
	str	x2, [x0,24]
	.loc 1 235 0
	strb	w19, [x20,1232]
	.loc 1 236 0
	ldp	x19, x20, [sp,16]
	.cfi_remember_state
	.cfi_restore 20
	.cfi_restore 19
.LVL13:
	ldp	x29, x30, [sp], 32
	.cfi_restore 30
	.cfi_restore 29
	.cfi_def_cfa 31, 0
	ret
.LVL14:
.L15:
	.cfi_restore_state
	.loc 1 232 0
	orr	x2, x2, 8
	str	x2, [x0,24]
	.loc 1 235 0
	strb	w19, [x20,1232]
	.loc 1 236 0
	ldp	x19, x20, [sp,16]
	.cfi_restore 19
	.cfi_restore 20
.LVL15:
	ldp	x29, x30, [sp], 32
	.cfi_restore 29
	.cfi_restore 30
	.cfi_def_cfa 31, 0
	ret
	.cfi_endproc
.LFE2985:
	.size	blk_queue_flush_reduce_config, .-blk_queue_flush_reduce_config
	.align	2
	.global	blk_power_off_flush
	.type	blk_power_off_flush, %function
blk_power_off_flush:
.LFB2975:
	.loc 1 93 0
	.cfi_startproc
.LVL16:
	stp	x29, x30, [sp, -112]!
	.cfi_def_cfa_offset 112
	.cfi_offset 29, -112
	.cfi_offset 30, -104
	add	x29, sp, 0
	.cfi_def_cfa_register 29
	stp	x19, x20, [sp,16]
	.cfi_offset 19, -96
	.cfi_offset 20, -88
	.loc 1 99 0
	adrp	x19, .LANCHOR0
	.loc 1 93 0
	stp	x21, x22, [sp,32]
	stp	x23, x24, [sp,48]
	.loc 1 99 0
	ldrb	w1, [x19,#:lo12:.LANCHOR0]
	.loc 1 93 0
	stp	x25, x26, [sp,64]
	stp	x27, x28, [sp,80]
	.cfi_offset 21, -80
	.cfi_offset 22, -72
	.cfi_offset 23, -64
	.cfi_offset 24, -56
	.cfi_offset 25, -48
	.cfi_offset 26, -40
	.cfi_offset 27, -32
	.cfi_offset 28, -24
	.loc 1 99 0
	cbz	w1, .L39
.LVL17:
.L16:
	.loc 1 120 0
	ldp	x19, x20, [sp,16]
	.cfi_remember_state
	.cfi_restore 20
	.cfi_restore 19
.LVL18:
	ldp	x21, x22, [sp,32]
	.cfi_restore 22
	.cfi_restore 21
	ldp	x23, x24, [sp,48]
	.cfi_restore 24
	.cfi_restore 23
	ldp	x25, x26, [sp,64]
	.cfi_restore 26
	.cfi_restore 25
.LVL19:
	ldp	x27, x28, [sp,80]
	.cfi_restore 28
	.cfi_restore 27
	ldp	x29, x30, [sp], 112
	.cfi_restore 30
	.cfi_restore 29
	.cfi_def_cfa 31, 0
	ret
.L39:
	.cfi_restore_state
.LBB155:
.LBB156:
	.loc 1 101 0
	adrp	x24, .LANCHOR1
	mov	w2, w0
	add	x22, x24, :lo12:.LANCHOR1
	adrp	x0, .LC0
.LVL20:
	mov	x1, x22
	add	x0, x0, :lo12:.LC0
	.loc 1 103 0 discriminator 1
	adrp	x25, .LANCHOR2
	.loc 1 101 0
	bl	printk
.LVL21:
	.loc 1 103 0 discriminator 1
	add	x21, x25, :lo12:.LANCHOR2
	mov	x0, x21
	.loc 1 102 0
	mov	w1, 1
	strb	w1, [x19,#:lo12:.LANCHOR0]
.LBB157:
	.loc 1 104 0
	add	x21, x21, 24
.LBE157:
	.loc 1 103 0 discriminator 1
	bl	_raw_spin_lock_irqsave
.LVL22:
.LBB158:
	.loc 1 104 0
	ldr	x20, [x21]
.LVL23:
.LBE158:
	.loc 1 103 0 discriminator 1
	mov	x26, x0
.LVL24:
	.loc 1 104 0 discriminator 1
	cmp	x21, x20
.LBB159:
	.loc 1 104 0 is_stmt 0
	sub	x20, x20, #152
.LVL25:
.LBE159:
	.loc 1 104 0 discriminator 1
	beq	.L24
	.loc 1 113 0 is_stmt 1
	adrp	x27, .LC3
	.loc 1 110 0
	adrp	x23, .LC2
	.loc 1 113 0
	add	x27, x27, :lo12:.LC3
	.loc 1 110 0
	add	x23, x23, :lo12:.LC2
	b	.L33
.LVL26:
.L20:
.LBB160:
	.loc 1 104 0 discriminator 2
	ldr	x20, [x20,152]
.LVL27:
.LBE160:
	.loc 1 104 0 is_stmt 0 discriminator 1
	cmp	x21, x20
.LBB161:
	.loc 1 104 0 discriminator 2
	sub	x20, x20, #152
.LVL28:
.LBE161:
	.loc 1 104 0 discriminator 1
	beq	.L24
.L33:
	.loc 1 105 0 is_stmt 1
	ldrb	w0, [x20,8]
.LVL29:
	cbz	w0, .L20
.LBB162:
	.loc 1 106 0
	sub	x28, x20, #1064
.LBE162:
	.loc 1 107 0
	mov	x0, x28
	bl	hisi_blk_get_lld
.LVL30:
	.loc 1 108 0
	cbz	x0, .L20
	.loc 1 108 0 is_stmt 0 discriminator 1
	ldr	x1, [x0,56]
	cbz	x1, .L20
	.loc 1 109 0 is_stmt 1
	ldr	x2, [x28,1064]
	cbnz	x2, .L40
.L22:
	.loc 1 111 0
	mov	x0, x28
.LVL31:
	blr	x1
.LVL32:
	.loc 1 112 0
	ldr	x2, [x28,1064]
	cbz	x2, .L20
	.loc 1 113 0
	mov	x0, x27
	mov	x1, x22
	add	x2, x2, 12
	bl	printk
.LVL33:
	b	.L20
.LVL34:
.L24:
.LBB163:
.LBB164:
	.file 3 "/mnt/disk/jenkins/ci/workspace/chipset_pipeline_release/opensource/component_code/vendor/huawei/extra/build/build_script/kirin_kernel_release/kernel/include/linux/spinlock.h"
	.loc 3 362 0
	add	x0, x25, :lo12:.LANCHOR2
.LVL35:
	mov	x1, x26
	bl	_raw_spin_unlock_irqrestore
.LVL36:
.LBE164:
.LBE163:
	.loc 1 118 0
	strb	wzr, [x19,#:lo12:.LANCHOR0]
	.loc 1 119 0
	adrp	x0, .LC1
	add	x1, x24, :lo12:.LANCHOR1
	add	x0, x0, :lo12:.LC1
	bl	printk
.LVL37:
	b	.L16
.LVL38:
.L40:
	str	x0, [x29,104]
	.loc 1 110 0
	mov	x1, x22
	add	x2, x2, 12
	mov	x0, x23
.LVL39:
	bl	printk
.LVL40:
	ldr	x3, [x29,104]
.LVL41:
	ldr	x1, [x3,56]
	b	.L22
.LBE156:
.LBE155:
	.cfi_endproc
.LFE2975:
	.size	blk_power_off_flush, .-blk_power_off_flush
	.align	2
	.type	hisi_blk_flush_work_fn, %function
hisi_blk_flush_work_fn:
.LFB2972:
	.loc 1 21 0
	.cfi_startproc
.LVL42:
	stp	x29, x30, [sp, -32]!
	.cfi_def_cfa_offset 32
	.cfi_offset 29, -32
	.cfi_offset 30, -24
	.loc 1 24 0
	mov	w1, 0
	.loc 1 21 0
	add	x29, sp, 0
	.cfi_def_cfa_register 29
	str	x19, [sp,16]
	.cfi_offset 19, -16
	.loc 1 24 0
	ldr	x0, [x0,-24]
.LVL43:
	bl	bdget_disk
.LVL44:
	mov	x19, x0
.LVL45:
	.loc 1 26 0
	cbz	x0, .L41
.LBB171:
	.loc 1 27 0
	mov	w1, 2
	mov	x2, 0
	bl	blkdev_get
.LVL46:
	.loc 1 29 0
	cbnz	w0, .L51
	.loc 1 33 0
	mov	w1, 192
	mov	x0, x19
	movk	w1, 0x240, lsl 16
	mov	x2, 0
	bl	blkdev_issue_flush
.LVL47:
	.loc 1 34 0
	cbnz	w0, .L52
.L44:
	.loc 1 36 0
	mov	x0, x19
	mov	w1, 2
	bl	blkdev_put
.LVL48:
.L41:
.LBE171:
	.loc 1 38 0
	ldr	x19, [sp,16]
	.cfi_remember_state
	.cfi_restore 19
.LVL49:
	ldp	x29, x30, [sp], 32
	.cfi_restore 30
	.cfi_restore 29
	.cfi_def_cfa 31, 0
	ret
.LVL50:
.L51:
	.cfi_restore_state
.LBB172:
.LBB173:
.LBB174:
	.loc 1 30 0
	adrp	x1, .LANCHOR1
	adrp	x0, .LC4
	add	x1, x1, :lo12:.LANCHOR1
	add	x0, x0, :lo12:.LC4
	add	x1, x1, 24
	bl	printk
.LVL51:
	b	.L41
.L52:
.LBE174:
.LBE173:
.LBE172:
.LBB175:
	.loc 1 35 0
	adrp	x1, .LANCHOR1
	adrp	x0, .LC5
	add	x1, x1, :lo12:.LANCHOR1
	add	x0, x0, :lo12:.LC5
	add	x1, x1, 24
	bl	printk
.LVL52:
	b	.L44
.LBE175:
	.cfi_endproc
.LFE2972:
	.size	hisi_blk_flush_work_fn, .-hisi_blk_flush_work_fn
	.align	2
	.global	hisi_blk_flush_sync_dispatch
	.type	hisi_blk_flush_sync_dispatch, %function
hisi_blk_flush_sync_dispatch:
.LFB2973:
	.loc 1 44 0
	.cfi_startproc
.LVL53:
	stp	x29, x30, [sp, -32]!
	.cfi_def_cfa_offset 32
	.cfi_offset 29, -32
	.cfi_offset 30, -24
	add	x29, sp, 0
	.cfi_def_cfa_register 29
	.loc 1 45 0
	ldr	w3, [x1,20]
	tbnz	x3, 9, .L74
.L54:
	.loc 1 74 0
	lsr	w3, w3, 29
	.loc 1 79 0
	mov	w1, 1
.LVL54:
	.loc 1 74 0
	cmp	w3, w1
	bne	.L66
.LBB176:
.LBB177:
	.file 4 "/mnt/disk/jenkins/ci/workspace/chipset_pipeline_release/opensource/component_code/vendor/huawei/extra/build/build_script/kirin_kernel_release/kernel/arch/arm64/include/asm/atomic_ll_sc.h"
	.loc 4 113 0
	add	x0, x0, 1212
.LVL55:
#APP
// 113 "/mnt/disk/jenkins/ci/workspace/chipset_pipeline_release/opensource/component_code/vendor/huawei/extra/build/build_script/kirin_kernel_release/kernel/arch/arm64/include/asm/atomic_ll_sc.h" 1
	// atomic_add
	prfm	pstl1strm, [x0]
1:	ldxr	w2, [x0]
	add	w2, w2, w1
	stxr	w3, w2, [x0]
	cbnz	w3, 1b
// 0 "" 2
.LVL56:
#NO_APP
.L66:
.LBE177:
.LBE176:
	.loc 1 80 0
	mov	w0, w1
.LVL57:
	ldp	x29, x30, [sp], 32
	.cfi_remember_state
	.cfi_restore 30
	.cfi_restore 29
	.cfi_def_cfa 31, 0
	ret
.LVL58:
.L74:
	.cfi_restore_state
	.loc 1 52 0
	ldrb	w2, [x1,146]
	cmp	w2, 1
	beq	.L75
.LBB178:
.LBB179:
.LBB180:
	.file 5 "/mnt/disk/jenkins/ci/workspace/chipset_pipeline_release/opensource/component_code/vendor/huawei/extra/build/build_script/kirin_kernel_release/kernel/include/linux/compiler.h"
	.loc 5 247 0 discriminator 4
	ldr	w2, [x0,1212]
.LBE180:
.LBE179:
.LBE178:
	.loc 1 62 0 discriminator 5
	cbnz	w2, .L54
	.loc 1 63 0
	ldr	w2, [x1,40]
	.loc 1 67 0
	mov	w1, 0
.LVL59:
	.loc 1 63 0
	cbnz	w2, .L54
	b	.L66
.LVL60:
.L75:
	.loc 1 52 0 discriminator 1
	ldr	w1, [x1,40]
.LVL61:
	cbz	w1, .L76
.LBB185:
.LBB183:
.LBB181:
	.loc 5 247 0 discriminator 4
	ldr	w1, [x0,1212]
	b	.L54
.L76:
.LBE181:
.LBE183:
.LBE185:
	.loc 1 52 0 discriminator 8
	ldrb	w1, [x0,1232]
	cbnz	w1, .L77
.LBB186:
.LBB184:
.LBB182:
	.loc 5 247 0 discriminator 4
	ldr	w1, [x0,1212]
.LBE182:
.LBE184:
.LBE186:
	.loc 1 62 0 discriminator 5
	cbnz	w1, .L54
	.loc 1 67 0
	mov	w1, 0
	b	.L66
.L77:
	.loc 1 54 0
	add	x2, x0, 1088
	str	x2, [x29,24]
	mov	x0, x2
.LVL62:
	bl	cancel_delayed_work
.LVL63:
.LBB187:
.LBB188:
	.file 6 "/mnt/disk/jenkins/ci/workspace/chipset_pipeline_release/opensource/component_code/vendor/huawei/extra/build/build_script/kirin_kernel_release/kernel/include/linux/workqueue.h"
	.loc 6 492 0
	adrp	x1, .LANCHOR0+8
	ldr	x2, [x29,24]
	mov	w0, 8
	mov	x3, 2
	ldr	x1, [x1,#:lo12:.LANCHOR0+8]
	bl	queue_delayed_work_on
.LVL64:
.LBE188:
.LBE187:
	.loc 1 60 0
	mov	w1, 0
	b	.L66
	.cfi_endproc
.LFE2973:
	.size	hisi_blk_flush_sync_dispatch, .-hisi_blk_flush_sync_dispatch
	.align	2
	.global	hisi_blk_flush_update
	.type	hisi_blk_flush_update, %function
hisi_blk_flush_update:
.LFB2974:
	.loc 1 83 0
	.cfi_startproc
.LVL65:
	.loc 1 84 0
	cbnz	w1, .L78
.LBB189:
	.loc 1 85 0
	ldr	x0, [x0,64]
.LVL66:
.LBB190:
.LBB191:
	.loc 5 275 0
	str	wzr, [x0,1212]
.LVL67:
.L78:
.LBE191:
.LBE190:
.LBE189:
	.loc 1 86 0
	ret
	.cfi_endproc
.LFE2974:
	.size	hisi_blk_flush_update, .-hisi_blk_flush_update
	.align	2
	.global	hisi_blk_flush_reduced_queue_unregister
	.type	hisi_blk_flush_reduced_queue_unregister, %function
hisi_blk_flush_reduced_queue_unregister:
.LFB2980:
	.loc 1 155 0
	.cfi_startproc
.LVL68:
	stp	x29, x30, [sp, -32]!
	.cfi_def_cfa_offset 32
	.cfi_offset 29, -32
	.cfi_offset 30, -24
	add	x29, sp, 0
	.cfi_def_cfa_register 29
	stp	x19, x20, [sp,16]
	.cfi_offset 19, -16
	.cfi_offset 20, -8
	.loc 1 158 0
	ldrb	w1, [x0,1232]
	cbz	w1, .L80
	.loc 1 159 0
	ldr	x1, [x0,1216]
	cbz	x1, .L80
	.loc 1 159 0 is_stmt 0 discriminator 1
	ldr	x1, [x0,1224]
	cbz	x1, .L80
.LBB212:
.LBB213:
	.loc 1 166 0 is_stmt 1 discriminator 1
	adrp	x20, .LANCHOR2
	mov	x19, x0
	add	x20, x20, :lo12:.LANCHOR2
	mov	x0, x20
.LVL69:
	bl	_raw_spin_lock_irqsave
.LVL70:
	mov	x1, x0
.LVL71:
.LBB214:
.LBB215:
.LBB216:
.LBB217:
	.file 7 "/mnt/disk/jenkins/ci/workspace/chipset_pipeline_release/opensource/component_code/vendor/huawei/extra/build/build_script/kirin_kernel_release/kernel/include/linux/list.h"
	.loc 7 119 0
	ldr	x5, [x19,1216]
.LBE217:
.LBE216:
	.loc 7 125 0
	mov	x4, 256
.LBB225:
.LBB223:
	.loc 7 119 0
	ldr	x0, [x19,1224]
.LBE223:
.LBE225:
	.loc 7 126 0
	mov	x3, 512
	.loc 7 125 0
	movk	x4, 0xdead, lsl 48
	.loc 7 126 0
	movk	x3, 0xdead, lsl 48
.LBB226:
.LBB224:
.LBB218:
.LBB219:
	.loc 7 104 0
	str	x0, [x5,8]
.LBB220:
.LBB221:
.LBB222:
	.loc 5 276 0
	str	x5, [x0]
.LBE222:
.LBE221:
.LBE220:
.LBE219:
.LBE218:
.LBE224:
.LBE226:
.LBE215:
.LBE214:
.LBB228:
.LBB229:
	.loc 3 362 0
	mov	x0, x20
.LBE229:
.LBE228:
.LBB231:
.LBB227:
	.loc 7 125 0
	str	x4, [x19,1216]
	.loc 7 126 0
	str	x3, [x19,1224]
.LBE227:
.LBE231:
.LBB232:
.LBB230:
	.loc 3 362 0
	bl	_raw_spin_unlock_irqrestore
.LVL72:
.L80:
.LBE230:
.LBE232:
.LBE213:
.LBE212:
	.loc 1 170 0
	ldp	x19, x20, [sp,16]
	.cfi_restore 20
	.cfi_restore 19
	ldp	x29, x30, [sp], 32
	.cfi_restore 30
	.cfi_restore 29
	.cfi_def_cfa 31, 0
	ret
	.cfi_endproc
.LFE2980:
	.size	hisi_blk_flush_reduced_queue_unregister, .-hisi_blk_flush_reduced_queue_unregister
	.align	2
	.global	blk_queue_direct_flush_register
	.type	blk_queue_direct_flush_register, %function
blk_queue_direct_flush_register:
.LFB2982:
	.loc 1 185 0
	.cfi_startproc
.LVL73:
	stp	x29, x30, [sp, -48]!
	.cfi_def_cfa_offset 48
	.cfi_offset 29, -48
	.cfi_offset 30, -40
	add	x29, sp, 0
	.cfi_def_cfa_register 29
	stp	x19, x20, [sp,16]
	.cfi_offset 19, -32
	.cfi_offset 20, -24
	.loc 1 185 0
	mov	x20, x0
	str	x1, [x29,40]
	.loc 1 186 0
	bl	hisi_blk_get_lld
.LVL74:
	.loc 1 188 0
	ldr	x1, [x29,40]
.LVL75:
	ldr	x2, [x20,1216]
	cbz	x2, .L95
.L92:
	.loc 1 190 0
	cbz	x1, .L93
.LBB251:
.LBB252:
	.loc 1 149 0 discriminator 1
	adrp	x19, .LANCHOR2
.LVL76:
.LBE252:
.LBE251:
	.loc 1 191 0
	str	x1, [x0,56]
.LBB269:
.LBB268:
	.loc 1 149 0 discriminator 1
	add	x19, x19, :lo12:.LANCHOR2
	mov	x0, x19
.LVL77:
	bl	_raw_spin_lock_irqsave
.LVL78:
	mov	x1, x0
.LVL79:
.LBB253:
.LBB254:
	.loc 7 78 0
	ldr	x3, [x19,24]
.LBE254:
.LBE253:
	.loc 1 150 0
	add	x2, x20, 1216
.LBB262:
.LBB260:
	.loc 7 78 0
	add	x4, x19, 24
.LBE260:
.LBE262:
.LBB263:
.LBB264:
	.loc 3 362 0
	mov	x0, x19
.LBE264:
.LBE263:
.LBB266:
.LBB261:
.LBB255:
.LBB256:
.LBB257:
.LBB258:
.LBB259:
	.loc 5 276 0
	str	x2, [x19,24]
.LBE259:
.LBE258:
.LBE257:
	.loc 7 62 0
	str	x2, [x3,8]
	.loc 7 63 0
	str	x3, [x20,1216]
	.loc 7 64 0
	str	x4, [x20,1224]
.LBE256:
.LBE255:
.LBE261:
.LBE266:
.LBB267:
.LBB265:
	.loc 3 362 0
	bl	_raw_spin_unlock_irqrestore
.LVL80:
.LBE265:
.LBE267:
.LBE268:
.LBE269:
	.loc 1 197 0
	ldp	x19, x20, [sp,16]
	.cfi_remember_state
	.cfi_restore 20
	.cfi_restore 19
.LVL81:
	ldp	x29, x30, [sp], 48
	.cfi_restore 30
	.cfi_restore 29
	.cfi_def_cfa 31, 0
	ret
.LVL82:
.L93:
	.cfi_restore_state
	.loc 1 194 0
	str	xzr, [x0,56]
	.loc 1 195 0
	mov	x0, x20
.LVL83:
	bl	hisi_blk_flush_reduced_queue_unregister
.LVL84:
	.loc 1 197 0
	ldp	x19, x20, [sp,16]
	.cfi_remember_state
	.cfi_restore 19
	.cfi_restore 20
.LVL85:
	ldp	x29, x30, [sp], 48
	.cfi_restore 29
	.cfi_restore 30
	.cfi_def_cfa 31, 0
	ret
.LVL86:
.L95:
	.cfi_restore_state
	.loc 1 188 0 discriminator 1
	ldr	x2, [x20,1224]
	cbnz	x2, .L92
	.loc 1 189 0
	add	x2, x20, 1216
.LBB270:
.LBB271:
.LBB272:
.LBB273:
.LBB274:
	.loc 5 276 0
	str	x2, [x20,1216]
.LBE274:
.LBE273:
.LBE272:
	.loc 7 28 0
	str	x2, [x2,8]
	b	.L92
.LBE271:
.LBE270:
	.cfi_endproc
.LFE2982:
	.size	blk_queue_direct_flush_register, .-blk_queue_direct_flush_register
	.align	2
	.global	hisi_blk_queue_async_flush_init
	.type	hisi_blk_queue_async_flush_init, %function
hisi_blk_queue_async_flush_init:
.LFB2983:
	.loc 1 201 0
	.cfi_startproc
.LVL87:
	stp	x29, x30, [sp, -48]!
	.cfi_def_cfa_offset 48
	.cfi_offset 29, -48
	.cfi_offset 30, -40
	add	x29, sp, 0
	.cfi_def_cfa_register 29
	stp	x19, x20, [sp,16]
	.cfi_offset 19, -32
	.cfi_offset 20, -24
	mov	x19, x0
	stp	x21, x22, [sp,32]
	.cfi_offset 21, -16
	.cfi_offset 22, -8
	.loc 1 202 0
	bl	hisi_blk_get_lld
.LVL88:
	mov	x20, x0
.LVL89:
	.loc 1 205 0
	ldr	x0, [x19,1216]
.LBB305:
.LBB306:
.LBB307:
	.loc 5 275 0
	str	wzr, [x19,1212]
.LBE307:
.LBE306:
.LBE305:
	.loc 1 205 0
	cbz	x0, .L103
.L97:
	.loc 1 207 0
	add	x0, x19, 1096
	mov	x1, 68719476704
.LBB308:
.LBB309:
.LBB310:
.LBB311:
.LBB312:
	.loc 5 276 0
	str	x0, [x19,1096]
.LBE312:
.LBE311:
.LBE310:
.LBE309:
.LBE308:
	.loc 1 207 0 discriminator 2
	mov	x2, 0
	.loc 1 207 0 is_stmt 0
	str	x1, [x19,1088]
	adrp	x1, hisi_blk_flush_work_fn
.LBB314:
.LBB313:
	.loc 7 28 0 is_stmt 1
	str	x0, [x0,8]
.LBE313:
.LBE314:
	.loc 1 207 0
	add	x1, x1, :lo12:hisi_blk_flush_work_fn
	.loc 1 207 0 is_stmt 0 discriminator 2
	add	x0, x19, 1120
	.loc 1 207 0
	str	x1, [x19,1112]
	.loc 1 207 0 discriminator 2
	mov	x3, 0
	mov	w1, 2097152
	bl	init_timer_key
.LVL90:
	.loc 1 207 0
	adrp	x0, delayed_work_timer_fn
	add	x1, x19, 1088
	add	x0, x0, :lo12:delayed_work_timer_fn
	str	x1, [x19,1152]
	str	x0, [x19,1144]
	.loc 1 208 0 is_stmt 1
	ldr	x0, [x20,56]
	cbz	x0, .L98
.LBB315:
.LBB316:
.LBB317:
.LBB318:
	.loc 5 247 0 discriminator 5
	ldr	x0, [x19,1216]
.LBE318:
.LBE317:
.LBE316:
.LBE315:
	.loc 1 208 0 discriminator 1
	add	x21, x19, 1216
	cmp	x21, x0
	beq	.L104
.L98:
	.loc 1 210 0
	ldr	x0, [x20,24]
	.loc 1 211 0
	adrp	x20, .LANCHOR0
.LVL91:
	add	x20, x20, :lo12:.LANCHOR0
	.loc 1 210 0
	ubfx	x0, x0, 3, 1
	strb	w0, [x19,1232]
	.loc 1 211 0
	ldr	x0, [x20,8]
	cbz	x0, .L105
	.loc 1 213 0
	ldp	x19, x20, [sp,16]
	.cfi_remember_state
	.cfi_restore 20
	.cfi_restore 19
.LVL92:
	ldp	x21, x22, [sp,32]
	.cfi_restore 22
	.cfi_restore 21
	ldp	x29, x30, [sp], 48
	.cfi_restore 30
	.cfi_restore 29
	.cfi_def_cfa 31, 0
	ret
.LVL93:
.L103:
	.cfi_restore_state
	.loc 1 205 0 discriminator 1
	ldr	x0, [x19,1224]
	cbnz	x0, .L97
	.loc 1 206 0
	add	x0, x19, 1216
.LBB319:
.LBB320:
.LBB321:
.LBB322:
.LBB323:
	.loc 5 276 0
	str	x0, [x19,1216]
.LBE323:
.LBE322:
.LBE321:
	.loc 7 28 0
	str	x0, [x0,8]
	b	.L97
.LVL94:
.L105:
.LBE320:
.LBE319:
	.loc 1 212 0
	adrp	x0, .LC6
	mov	w1, 2
	mov	w2, 0
	mov	x3, 0
	mov	x4, 0
	add	x0, x0, :lo12:.LC6
	bl	__alloc_workqueue_key
.LVL95:
	str	x0, [x20,8]
	.loc 1 213 0
	ldp	x19, x20, [sp,16]
	.cfi_remember_state
	.cfi_restore 19
	.cfi_restore 20
.LVL96:
	ldp	x21, x22, [sp,32]
	.cfi_restore 21
	.cfi_restore 22
	ldp	x29, x30, [sp], 48
	.cfi_restore 29
	.cfi_restore 30
	.cfi_def_cfa 31, 0
	ret
.LVL97:
.L104:
	.cfi_restore_state
.LBB324:
.LBB325:
	.loc 1 149 0 discriminator 1
	adrp	x22, .LANCHOR2
	add	x22, x22, :lo12:.LANCHOR2
	mov	x0, x22
	bl	_raw_spin_lock_irqsave
.LVL98:
	mov	x1, x0
.LVL99:
.LBB326:
.LBB327:
	.loc 7 78 0
	ldr	x2, [x22,24]
	add	x3, x22, 24
.LBE327:
.LBE326:
.LBB334:
.LBB335:
	.loc 3 362 0
	mov	x0, x22
.LBE335:
.LBE334:
.LBB337:
.LBB333:
.LBB328:
.LBB329:
.LBB330:
.LBB331:
.LBB332:
	.loc 5 276 0
	str	x21, [x22,24]
.LBE332:
.LBE331:
.LBE330:
	.loc 7 62 0
	str	x21, [x2,8]
	.loc 7 63 0
	str	x2, [x19,1216]
	.loc 7 64 0
	str	x3, [x19,1224]
.LBE329:
.LBE328:
.LBE333:
.LBE337:
.LBB338:
.LBB336:
	.loc 3 362 0
	bl	_raw_spin_unlock_irqrestore
.LVL100:
	b	.L98
.LBE336:
.LBE338:
.LBE325:
.LBE324:
	.cfi_endproc
.LFE2983:
	.size	hisi_blk_queue_async_flush_init, .-hisi_blk_queue_async_flush_init
	.section	.rodata
	.align	3
.LANCHOR1 = . + 0
	.type	__func__.42491, %object
	.size	__func__.42491, 20
__func__.42491:
	.string	"blk_power_off_flush"
	.zero	4
	.type	__func__.42464, %object
	.size	__func__.42464, 23
__func__.42464:
	.string	"hisi_blk_flush_work_fn"
	.section	___ksymtab_gpl+blk_power_off_flush,"a",%progbits
	.align	3
	.type	__ksymtab_blk_power_off_flush, %object
	.size	__ksymtab_blk_power_off_flush, 16
__ksymtab_blk_power_off_flush:
	.xword	blk_power_off_flush
	.xword	__kstrtab_blk_power_off_flush
	.section	___ksymtab_gpl+blk_flush_async_support,"a",%progbits
	.align	3
	.type	__ksymtab_blk_flush_async_support, %object
	.size	__ksymtab_blk_flush_async_support, 16
__ksymtab_blk_flush_async_support:
	.xword	blk_flush_async_support
	.xword	__kstrtab_blk_flush_async_support
	.section	___kcrctab_gpl+blk_power_off_flush,"a",%progbits
	.align	3
	.type	__kcrctab_blk_power_off_flush, %object
	.size	__kcrctab_blk_power_off_flush, 8
__kcrctab_blk_power_off_flush:
	.xword	__crc_blk_power_off_flush
	.section	.exitcall.exit,"aw",%progbits
	.align	3
	.type	__exitcall_hisi_blk_flush_exit, %object
	.size	__exitcall_hisi_blk_flush_exit, 8
__exitcall_hisi_blk_flush_exit:
	.xword	hisi_blk_flush_exit
	.section	___kcrctab_gpl+blk_flush_async_support,"a",%progbits
	.align	3
	.type	__kcrctab_blk_flush_async_support, %object
	.size	__kcrctab_blk_flush_async_support, 8
__kcrctab_blk_flush_async_support:
	.xword	__crc_blk_flush_async_support
	.section	.initcall6.init,"aw",%progbits
	.align	3
	.type	__initcall_hisi_blk_flush_init6, %object
	.size	__initcall_hisi_blk_flush_init6, 8
__initcall_hisi_blk_flush_init6:
	.xword	hisi_blk_flush_init
	.section	___kcrctab_gpl+blk_queue_flush_reduce_config,"a",%progbits
	.align	3
	.type	__kcrctab_blk_queue_flush_reduce_config, %object
	.size	__kcrctab_blk_queue_flush_reduce_config, 8
__kcrctab_blk_queue_flush_reduce_config:
	.xword	__crc_blk_queue_flush_reduce_config
	.section	___ksymtab_gpl+blk_queue_flush_reduce_config,"a",%progbits
	.align	3
	.type	__ksymtab_blk_queue_flush_reduce_config, %object
	.size	__ksymtab_blk_queue_flush_reduce_config, 16
__ksymtab_blk_queue_flush_reduce_config:
	.xword	blk_queue_flush_reduce_config
	.xword	__kstrtab_blk_queue_flush_reduce_config
	.section	___ksymtab_gpl+blk_queue_flush_async_support,"a",%progbits
	.align	3
	.type	__ksymtab_blk_queue_flush_async_support, %object
	.size	__ksymtab_blk_queue_flush_async_support, 16
__ksymtab_blk_queue_flush_async_support:
	.xword	blk_queue_flush_async_support
	.xword	__kstrtab_blk_queue_flush_async_support
	.data
	.align	3
.LANCHOR2 = . + 0
	.type	all_flush_q_lock, %object
	.size	all_flush_q_lock, 24
all_flush_q_lock:
	.hword	0
	.hword	0
	.word	-559067475
	.word	-1
	.zero	4
	.xword	-1
	.type	all_flush_q_list, %object
	.size	all_flush_q_list, 16
all_flush_q_list:
	.xword	all_flush_q_list
	.xword	all_flush_q_list
	.section	___ksymtab_gpl+blk_flush_set_async,"a",%progbits
	.align	3
	.type	__ksymtab_blk_flush_set_async, %object
	.size	__ksymtab_blk_flush_set_async, 16
__ksymtab_blk_flush_set_async:
	.xword	blk_flush_set_async
	.xword	__kstrtab_blk_flush_set_async
	.section	___ksymtab_gpl+blk_queue_direct_flush_register,"a",%progbits
	.align	3
	.type	__ksymtab_blk_queue_direct_flush_register, %object
	.size	__ksymtab_blk_queue_direct_flush_register, 16
__ksymtab_blk_queue_direct_flush_register:
	.xword	blk_queue_direct_flush_register
	.xword	__kstrtab_blk_queue_direct_flush_register
	.section	___kcrctab_gpl+blk_queue_direct_flush_register,"a",%progbits
	.align	3
	.type	__kcrctab_blk_queue_direct_flush_register, %object
	.size	__kcrctab_blk_queue_direct_flush_register, 8
__kcrctab_blk_queue_direct_flush_register:
	.xword	__crc_blk_queue_direct_flush_register
	.section	___kcrctab_gpl+blk_flush_set_async,"a",%progbits
	.align	3
	.type	__kcrctab_blk_flush_set_async, %object
	.size	__kcrctab_blk_flush_set_async, 8
__kcrctab_blk_flush_set_async:
	.xword	__crc_blk_flush_set_async
	.section	.rodata.str1.8,"aMS",%progbits,1
	.align	3
.LC0:
	.string	"\0013[BLK-IO]<%s> emergency = %d \r\n"
	.zero	7
.LC1:
	.string	"\0013[BLK-IO]<%s> done! \r\n"
.LC2:
	.string	"\0013[BLK-IO]<%s> emergency flush on %s \r\n"
.LC3:
	.string	"\0013[BLK-IO]<%s> emergency flush on %s done!\r\n"
	.zero	3
.LC4:
	.string	"\0013[BLK-IO]<%s> blkdev_get fail! \r\n"
	.zero	5
.LC5:
	.string	"\0013[BLK-IO]<%s> blkdev_issue_flush fail! \r\n"
	.zero	5
.LC6:
	.string	"async_flush"
	.section	___ksymtab_gpl+blk_mq_tagset_flush_reduce_config,"a",%progbits
	.align	3
	.type	__ksymtab_blk_mq_tagset_flush_reduce_config, %object
	.size	__ksymtab_blk_mq_tagset_flush_reduce_config, 16
__ksymtab_blk_mq_tagset_flush_reduce_config:
	.xword	blk_mq_tagset_flush_reduce_config
	.xword	__kstrtab_blk_mq_tagset_flush_reduce_config
	.bss
	.align	3
.LANCHOR0 = . + 0
	.type	blk_power_off_flush_executing, %object
	.size	blk_power_off_flush_executing, 1
blk_power_off_flush_executing:
	.zero	1
	.zero	7
	.type	blk_async_flush_workqueue, %object
	.size	blk_async_flush_workqueue, 8
blk_async_flush_workqueue:
	.zero	8
	.section	___kcrctab_gpl+blk_mq_tagset_direct_flush_register,"a",%progbits
	.align	3
	.type	__kcrctab_blk_mq_tagset_direct_flush_register, %object
	.size	__kcrctab_blk_mq_tagset_direct_flush_register, 8
__kcrctab_blk_mq_tagset_direct_flush_register:
	.xword	__crc_blk_mq_tagset_direct_flush_register
	.section	___ksymtab_gpl+blk_mq_tagset_direct_flush_register,"a",%progbits
	.align	3
	.type	__ksymtab_blk_mq_tagset_direct_flush_register, %object
	.size	__ksymtab_blk_mq_tagset_direct_flush_register, 16
__ksymtab_blk_mq_tagset_direct_flush_register:
	.xword	blk_mq_tagset_direct_flush_register
	.xword	__kstrtab_blk_mq_tagset_direct_flush_register
	.section	___kcrctab_gpl+blk_mq_tagset_flush_reduce_config,"a",%progbits
	.align	3
	.type	__kcrctab_blk_mq_tagset_flush_reduce_config, %object
	.size	__kcrctab_blk_mq_tagset_flush_reduce_config, 8
__kcrctab_blk_mq_tagset_flush_reduce_config:
	.xword	__crc_blk_mq_tagset_flush_reduce_config
	.section	___kcrctab_gpl+blk_queue_flush_async_support,"a",%progbits
	.align	3
	.type	__kcrctab_blk_queue_flush_async_support, %object
	.size	__kcrctab_blk_queue_flush_async_support, 8
__kcrctab_blk_queue_flush_async_support:
	.xword	__crc_blk_queue_flush_async_support
	.section	__ksymtab_strings,"a",%progbits
	.type	__kstrtab_blk_queue_flush_async_support, %object
	.size	__kstrtab_blk_queue_flush_async_support, 30
__kstrtab_blk_queue_flush_async_support:
	.string	"blk_queue_flush_async_support"
	.type	__kstrtab_blk_flush_async_support, %object
	.size	__kstrtab_blk_flush_async_support, 24
__kstrtab_blk_flush_async_support:
	.string	"blk_flush_async_support"
	.type	__kstrtab_blk_mq_tagset_flush_reduce_config, %object
	.size	__kstrtab_blk_mq_tagset_flush_reduce_config, 34
__kstrtab_blk_mq_tagset_flush_reduce_config:
	.string	"blk_mq_tagset_flush_reduce_config"
	.type	__kstrtab_blk_queue_flush_reduce_config, %object
	.size	__kstrtab_blk_queue_flush_reduce_config, 30
__kstrtab_blk_queue_flush_reduce_config:
	.string	"blk_queue_flush_reduce_config"
	.type	__kstrtab_blk_flush_set_async, %object
	.size	__kstrtab_blk_flush_set_async, 20
__kstrtab_blk_flush_set_async:
	.string	"blk_flush_set_async"
	.type	__kstrtab_blk_queue_direct_flush_register, %object
	.size	__kstrtab_blk_queue_direct_flush_register, 32
__kstrtab_blk_queue_direct_flush_register:
	.string	"blk_queue_direct_flush_register"
	.type	__kstrtab_blk_mq_tagset_direct_flush_register, %object
	.size	__kstrtab_blk_mq_tagset_direct_flush_register, 36
__kstrtab_blk_mq_tagset_direct_flush_register:
	.string	"blk_mq_tagset_direct_flush_register"
	.type	__kstrtab_blk_power_off_flush, %object
	.size	__kstrtab_blk_power_off_flush, 20
__kstrtab_blk_power_off_flush:
	.string	"blk_power_off_flush"
	.weak	__crc_blk_queue_flush_async_support
	.weak	__crc_blk_mq_tagset_flush_reduce_config
	.weak	__crc_blk_mq_tagset_direct_flush_register
	.weak	__crc_blk_flush_set_async
	.weak	__crc_blk_queue_direct_flush_register
	.weak	__crc_blk_queue_flush_reduce_config
	.weak	__crc_blk_flush_async_support
	.weak	__crc_blk_power_off_flush
	.text
.Letext0:
	.file 8 "/mnt/disk/jenkins/ci/workspace/chipset_pipeline_release/opensource/component_code/vendor/huawei/extra/build/build_script/kirin_kernel_release/kernel/include/uapi/asm-generic/int-ll64.h"
	.file 9 "/mnt/disk/jenkins/ci/workspace/chipset_pipeline_release/opensource/component_code/vendor/huawei/extra/build/build_script/kirin_kernel_release/kernel/include/asm-generic/int-ll64.h"
	.file 10 "/mnt/disk/jenkins/ci/workspace/chipset_pipeline_release/opensource/component_code/vendor/huawei/extra/build/build_script/kirin_kernel_release/kernel/include/uapi/asm-generic/posix_types.h"
	.file 11 "/mnt/disk/jenkins/ci/workspace/chipset_pipeline_release/opensource/component_code/vendor/huawei/extra/build/build_script/kirin_kernel_release/kernel/include/linux/export.h"
	.file 12 "/mnt/disk/jenkins/ci/workspace/chipset_pipeline_release/opensource/component_code/vendor/huawei/extra/build/build_script/kirin_kernel_release/kernel/include/linux/types.h"
	.file 13 "/mnt/disk/jenkins/ci/workspace/chipset_pipeline_release/opensource/component_code/vendor/huawei/extra/build/build_script/kirin_kernel_release/kernel/include/linux/init.h"
	.file 14 "/mnt/disk/jenkins/ci/workspace/chipset_pipeline_release/opensource/component_code/vendor/huawei/extra/build/build_script/kirin_kernel_release/kernel/include/linux/capability.h"
	.file 15 "/mnt/disk/jenkins/ci/workspace/chipset_pipeline_release/opensource/component_code/vendor/huawei/extra/build/build_script/kirin_kernel_release/kernel/include/asm-generic/bug.h"
	.file 16 "/mnt/disk/jenkins/ci/workspace/chipset_pipeline_release/opensource/component_code/vendor/huawei/extra/build/build_script/kirin_kernel_release/kernel/include/linux/restart_block.h"
	.file 17 "/mnt/disk/jenkins/ci/workspace/chipset_pipeline_release/opensource/component_code/vendor/huawei/extra/build/build_script/kirin_kernel_release/kernel/include/uapi/linux/time.h"
	.file 18 "/mnt/disk/jenkins/ci/workspace/chipset_pipeline_release/opensource/component_code/vendor/huawei/extra/build/build_script/kirin_kernel_release/kernel/arch/arm64/include/asm/compat.h"
	.file 19 "/mnt/disk/jenkins/ci/workspace/chipset_pipeline_release/opensource/component_code/vendor/huawei/extra/build/build_script/kirin_kernel_release/kernel/include/uapi/asm-generic/poll.h"
	.file 20 "/mnt/disk/jenkins/ci/workspace/chipset_pipeline_release/opensource/component_code/vendor/huawei/extra/build/build_script/kirin_kernel_release/kernel/arch/arm64/include/asm/thread_info.h"
	.file 21 "/mnt/disk/jenkins/ci/workspace/chipset_pipeline_release/opensource/component_code/vendor/huawei/extra/build/build_script/kirin_kernel_release/kernel/arch/arm64/include/uapi/asm/ptrace.h"
	.file 22 "/mnt/disk/jenkins/ci/workspace/chipset_pipeline_release/opensource/component_code/vendor/huawei/extra/build/build_script/kirin_kernel_release/kernel/arch/arm64/include/asm/spinlock_types.h"
	.file 23 "/mnt/disk/jenkins/ci/workspace/chipset_pipeline_release/opensource/component_code/vendor/huawei/extra/build/build_script/kirin_kernel_release/kernel/include/linux/spinlock_types.h"
	.file 24 "/mnt/disk/jenkins/ci/workspace/chipset_pipeline_release/opensource/component_code/vendor/huawei/extra/build/build_script/kirin_kernel_release/kernel/include/linux/rwlock_types.h"
	.file 25 "/mnt/disk/jenkins/ci/workspace/chipset_pipeline_release/opensource/component_code/vendor/huawei/extra/build/build_script/kirin_kernel_release/kernel/arch/arm64/include/asm/fpsimd.h"
	.file 26 "/mnt/disk/jenkins/ci/workspace/chipset_pipeline_release/opensource/component_code/vendor/huawei/extra/build/build_script/kirin_kernel_release/kernel/include/linux/jump_label.h"
	.file 27 "/mnt/disk/jenkins/ci/workspace/chipset_pipeline_release/opensource/component_code/vendor/huawei/extra/build/build_script/kirin_kernel_release/kernel/include/asm-generic/atomic-long.h"
	.file 28 "/mnt/disk/jenkins/ci/workspace/chipset_pipeline_release/opensource/component_code/vendor/huawei/extra/build/build_script/kirin_kernel_release/kernel/arch/arm64/include/asm/processor.h"
	.file 29 "/mnt/disk/jenkins/ci/workspace/chipset_pipeline_release/opensource/component_code/vendor/huawei/extra/build/build_script/kirin_kernel_release/kernel/include/linux/seqlock.h"
	.file 30 "/mnt/disk/jenkins/ci/workspace/chipset_pipeline_release/opensource/component_code/vendor/huawei/extra/build/build_script/kirin_kernel_release/kernel/include/linux/time64.h"
	.file 31 "/mnt/disk/jenkins/ci/workspace/chipset_pipeline_release/opensource/component_code/vendor/huawei/extra/build/build_script/kirin_kernel_release/kernel/include/linux/plist.h"
	.file 32 "/mnt/disk/jenkins/ci/workspace/chipset_pipeline_release/opensource/component_code/vendor/huawei/extra/build/build_script/kirin_kernel_release/kernel/include/linux/cpumask.h"
	.file 33 "/mnt/disk/jenkins/ci/workspace/chipset_pipeline_release/opensource/component_code/vendor/huawei/extra/build/build_script/kirin_kernel_release/kernel/include/linux/wait.h"
	.file 34 "/mnt/disk/jenkins/ci/workspace/chipset_pipeline_release/opensource/component_code/vendor/huawei/extra/build/build_script/kirin_kernel_release/kernel/include/linux/completion.h"
	.file 35 "/mnt/disk/jenkins/ci/workspace/chipset_pipeline_release/opensource/component_code/vendor/huawei/extra/build/build_script/kirin_kernel_release/kernel/include/linux/ktime.h"
	.file 36 "/mnt/disk/jenkins/ci/workspace/chipset_pipeline_release/opensource/component_code/vendor/huawei/extra/build/build_script/kirin_kernel_release/kernel/include/linux/rbtree.h"
	.file 37 "/mnt/disk/jenkins/ci/workspace/chipset_pipeline_release/opensource/component_code/vendor/huawei/extra/build/build_script/kirin_kernel_release/kernel/include/linux/nodemask.h"
	.file 38 "/mnt/disk/jenkins/ci/workspace/chipset_pipeline_release/opensource/component_code/vendor/huawei/extra/build/build_script/kirin_kernel_release/kernel/include/linux/osq_lock.h"
	.file 39 "/mnt/disk/jenkins/ci/workspace/chipset_pipeline_release/opensource/component_code/vendor/huawei/extra/build/build_script/kirin_kernel_release/kernel/include/linux/rwsem.h"
	.file 40 "/mnt/disk/jenkins/ci/workspace/chipset_pipeline_release/opensource/component_code/vendor/huawei/extra/build/build_script/kirin_kernel_release/kernel/include/linux/sched.h"
	.file 41 "/mnt/disk/jenkins/ci/workspace/chipset_pipeline_release/opensource/component_code/vendor/huawei/extra/build/build_script/kirin_kernel_release/kernel/include/linux/mm_types.h"
	.file 42 "/mnt/disk/jenkins/ci/workspace/chipset_pipeline_release/opensource/component_code/vendor/huawei/extra/build/build_script/kirin_kernel_release/kernel/include/linux/lockdep.h"
	.file 43 "/mnt/disk/jenkins/ci/workspace/chipset_pipeline_release/opensource/component_code/vendor/huawei/extra/build/build_script/kirin_kernel_release/kernel/include/linux/uprobes.h"
	.file 44 "/mnt/disk/jenkins/ci/workspace/chipset_pipeline_release/opensource/component_code/vendor/huawei/extra/build/build_script/kirin_kernel_release/kernel/include/linux/timer.h"
	.file 45 "/mnt/disk/jenkins/ci/workspace/chipset_pipeline_release/opensource/component_code/vendor/huawei/extra/build/build_script/kirin_kernel_release/kernel/include/linux/uidgid.h"
	.file 46 "/mnt/disk/jenkins/ci/workspace/chipset_pipeline_release/opensource/component_code/vendor/huawei/extra/build/build_script/kirin_kernel_release/kernel/include/linux/stddef.h"
	.file 47 "/mnt/disk/jenkins/ci/workspace/chipset_pipeline_release/opensource/component_code/vendor/huawei/extra/build/build_script/kirin_kernel_release/kernel/arch/arm64/include/asm/pgtable-types.h"
	.file 48 "/mnt/disk/jenkins/ci/workspace/chipset_pipeline_release/opensource/component_code/vendor/huawei/extra/build/build_script/kirin_kernel_release/kernel/arch/arm64/include/asm/page.h"
	.file 49 "/mnt/disk/jenkins/ci/workspace/chipset_pipeline_release/opensource/component_code/vendor/huawei/extra/build/build_script/kirin_kernel_release/kernel/include/linux/pfn.h"
	.file 50 "/mnt/disk/jenkins/ci/workspace/chipset_pipeline_release/opensource/component_code/vendor/huawei/extra/build/build_script/kirin_kernel_release/kernel/include/linux/llist.h"
	.file 51 "/mnt/disk/jenkins/ci/workspace/chipset_pipeline_release/opensource/component_code/vendor/huawei/extra/build/build_script/kirin_kernel_release/kernel/include/linux/smp.h"
	.file 52 "/mnt/disk/jenkins/ci/workspace/chipset_pipeline_release/opensource/component_code/vendor/huawei/extra/build/build_script/kirin_kernel_release/kernel/arch/arm64/include/asm/smp.h"
	.file 53 "/mnt/disk/jenkins/ci/workspace/chipset_pipeline_release/opensource/component_code/vendor/huawei/extra/build/build_script/kirin_kernel_release/kernel/arch/arm64/include/asm/mmu.h"
	.file 54 "/mnt/disk/jenkins/ci/workspace/chipset_pipeline_release/opensource/component_code/vendor/huawei/extra/build/build_script/kirin_kernel_release/kernel/include/linux/fs.h"
	.file 55 "/mnt/disk/jenkins/ci/workspace/chipset_pipeline_release/opensource/component_code/vendor/huawei/extra/build/build_script/kirin_kernel_release/kernel/include/linux/mm.h"
	.file 56 "/mnt/disk/jenkins/ci/workspace/chipset_pipeline_release/opensource/component_code/vendor/huawei/extra/build/build_script/kirin_kernel_release/kernel/include/asm-generic/cputime_jiffies.h"
	.file 57 "/mnt/disk/jenkins/ci/workspace/chipset_pipeline_release/opensource/component_code/vendor/huawei/extra/build/build_script/kirin_kernel_release/kernel/include/uapi/asm-generic/signal.h"
	.file 58 "/mnt/disk/jenkins/ci/workspace/chipset_pipeline_release/opensource/component_code/vendor/huawei/extra/build/build_script/kirin_kernel_release/kernel/include/uapi/asm-generic/signal-defs.h"
	.file 59 "/mnt/disk/jenkins/ci/workspace/chipset_pipeline_release/opensource/component_code/vendor/huawei/extra/build/build_script/kirin_kernel_release/kernel/include/uapi/asm-generic/siginfo.h"
	.file 60 "/mnt/disk/jenkins/ci/workspace/chipset_pipeline_release/opensource/component_code/vendor/huawei/extra/build/build_script/kirin_kernel_release/kernel/include/linux/signal.h"
	.file 61 "/mnt/disk/jenkins/ci/workspace/chipset_pipeline_release/opensource/component_code/vendor/huawei/extra/build/build_script/kirin_kernel_release/kernel/include/linux/pid.h"
	.file 62 "/mnt/disk/jenkins/ci/workspace/chipset_pipeline_release/opensource/component_code/vendor/huawei/extra/build/build_script/kirin_kernel_release/kernel/include/linux/mmzone.h"
	.file 63 "/mnt/disk/jenkins/ci/workspace/chipset_pipeline_release/opensource/component_code/vendor/huawei/extra/build/build_script/kirin_kernel_release/kernel/include/linux/mutex.h"
	.file 64 "/mnt/disk/jenkins/ci/workspace/chipset_pipeline_release/opensource/component_code/vendor/huawei/extra/build/build_script/kirin_kernel_release/kernel/include/linux/notifier.h"
	.file 65 "/mnt/disk/jenkins/ci/workspace/chipset_pipeline_release/opensource/component_code/vendor/huawei/extra/build/build_script/kirin_kernel_release/kernel/include/linux/seccomp.h"
	.file 66 "/mnt/disk/jenkins/ci/workspace/chipset_pipeline_release/opensource/component_code/vendor/huawei/extra/build/build_script/kirin_kernel_release/kernel/include/uapi/linux/resource.h"
	.file 67 "/mnt/disk/jenkins/ci/workspace/chipset_pipeline_release/opensource/component_code/vendor/huawei/extra/build/build_script/kirin_kernel_release/kernel/include/linux/timerqueue.h"
	.file 68 "/mnt/disk/jenkins/ci/workspace/chipset_pipeline_release/opensource/component_code/vendor/huawei/extra/build/build_script/kirin_kernel_release/kernel/include/linux/hrtimer.h"
	.file 69 "/mnt/disk/jenkins/ci/workspace/chipset_pipeline_release/opensource/component_code/vendor/huawei/extra/build/build_script/kirin_kernel_release/kernel/include/linux/task_io_accounting.h"
	.file 70 "/mnt/disk/jenkins/ci/workspace/chipset_pipeline_release/opensource/component_code/vendor/huawei/extra/build/build_script/kirin_kernel_release/kernel/include/linux/assoc_array.h"
	.file 71 "/mnt/disk/jenkins/ci/workspace/chipset_pipeline_release/opensource/component_code/vendor/huawei/extra/build/build_script/kirin_kernel_release/kernel/include/linux/key.h"
	.file 72 "/mnt/disk/jenkins/ci/workspace/chipset_pipeline_release/opensource/component_code/vendor/huawei/extra/build/build_script/kirin_kernel_release/kernel/include/linux/cred.h"
	.file 73 "/mnt/disk/jenkins/ci/workspace/chipset_pipeline_release/opensource/component_code/vendor/huawei/extra/build/build_script/kirin_kernel_release/kernel/include/linux/idr.h"
	.file 74 "/mnt/disk/jenkins/ci/workspace/chipset_pipeline_release/opensource/component_code/vendor/huawei/extra/build/build_script/kirin_kernel_release/kernel/include/linux/percpu-refcount.h"
	.file 75 "/mnt/disk/jenkins/ci/workspace/chipset_pipeline_release/opensource/component_code/vendor/huawei/extra/build/build_script/kirin_kernel_release/kernel/include/linux/rcu_sync.h"
	.file 76 "/mnt/disk/jenkins/ci/workspace/chipset_pipeline_release/opensource/component_code/vendor/huawei/extra/build/build_script/kirin_kernel_release/kernel/include/linux/percpu-rwsem.h"
	.file 77 "/mnt/disk/jenkins/ci/workspace/chipset_pipeline_release/opensource/component_code/vendor/huawei/extra/build/build_script/kirin_kernel_release/kernel/include/linux/bpf-cgroup.h"
	.file 78 "/mnt/disk/jenkins/ci/workspace/chipset_pipeline_release/opensource/component_code/vendor/huawei/extra/build/build_script/kirin_kernel_release/kernel/include/linux/cgroup-defs.h"
	.file 79 "/mnt/disk/jenkins/ci/workspace/chipset_pipeline_release/opensource/component_code/vendor/huawei/extra/build/build_script/kirin_kernel_release/kernel/include/linux/kernfs.h"
	.file 80 "/mnt/disk/jenkins/ci/workspace/chipset_pipeline_release/opensource/component_code/vendor/huawei/extra/build/build_script/kirin_kernel_release/kernel/include/linux/seq_file.h"
	.file 81 "/mnt/disk/jenkins/ci/workspace/chipset_pipeline_release/opensource/component_code/vendor/huawei/extra/build/build_script/kirin_kernel_release/kernel/include/linux/bio.h"
	.file 82 "/mnt/disk/jenkins/ci/workspace/chipset_pipeline_release/opensource/component_code/vendor/huawei/extra/build/build_script/kirin_kernel_release/kernel/include/linux/backing-dev-defs.h"
	.file 83 "/mnt/disk/jenkins/ci/workspace/chipset_pipeline_release/opensource/component_code/vendor/huawei/extra/build/build_script/kirin_kernel_release/kernel/include/linux/iocontext.h"
	.file 84 "/mnt/disk/jenkins/ci/workspace/chipset_pipeline_release/opensource/component_code/vendor/huawei/extra/build/build_script/kirin_kernel_release/kernel/include/linux/compat.h"
	.file 85 "/mnt/disk/jenkins/ci/workspace/chipset_pipeline_release/opensource/component_code/vendor/huawei/extra/build/build_script/kirin_kernel_release/kernel/include/linux/stat.h"
	.file 86 "/mnt/disk/jenkins/ci/workspace/chipset_pipeline_release/opensource/component_code/vendor/huawei/extra/build/build_script/kirin_kernel_release/kernel/include/uapi/linux/elf.h"
	.file 87 "/mnt/disk/jenkins/ci/workspace/chipset_pipeline_release/opensource/component_code/vendor/huawei/extra/build/build_script/kirin_kernel_release/kernel/include/linux/kobject_ns.h"
	.file 88 "/mnt/disk/jenkins/ci/workspace/chipset_pipeline_release/opensource/component_code/vendor/huawei/extra/build/build_script/kirin_kernel_release/kernel/include/linux/sysfs.h"
	.file 89 "/mnt/disk/jenkins/ci/workspace/chipset_pipeline_release/opensource/component_code/vendor/huawei/extra/build/build_script/kirin_kernel_release/kernel/include/linux/kobject.h"
	.file 90 "/mnt/disk/jenkins/ci/workspace/chipset_pipeline_release/opensource/component_code/vendor/huawei/extra/build/build_script/kirin_kernel_release/kernel/include/linux/kref.h"
	.file 91 "/mnt/disk/jenkins/ci/workspace/chipset_pipeline_release/opensource/component_code/vendor/huawei/extra/build/build_script/kirin_kernel_release/kernel/include/linux/moduleparam.h"
	.file 92 "/mnt/disk/jenkins/ci/workspace/chipset_pipeline_release/opensource/component_code/vendor/huawei/extra/build/build_script/kirin_kernel_release/kernel/include/linux/module.h"
	.file 93 "/mnt/disk/jenkins/ci/workspace/chipset_pipeline_release/opensource/component_code/vendor/huawei/extra/build/build_script/kirin_kernel_release/kernel/include/linux/rbtree_latch.h"
	.file 94 "/mnt/disk/jenkins/ci/workspace/chipset_pipeline_release/opensource/component_code/vendor/huawei/extra/build/build_script/kirin_kernel_release/kernel/arch/arm64/include/asm/module.h"
	.file 95 "/mnt/disk/jenkins/ci/workspace/chipset_pipeline_release/opensource/component_code/vendor/huawei/extra/build/build_script/kirin_kernel_release/kernel/arch/arm64/include/asm/uaccess.h"
	.file 96 "/mnt/disk/jenkins/ci/workspace/chipset_pipeline_release/opensource/component_code/vendor/huawei/extra/build/build_script/kirin_kernel_release/kernel/include/linux/tracepoint-defs.h"
	.file 97 "/mnt/disk/jenkins/ci/workspace/chipset_pipeline_release/opensource/component_code/vendor/huawei/extra/build/build_script/kirin_kernel_release/kernel/include/linux/tracepoint.h"
	.file 98 "/mnt/disk/jenkins/ci/workspace/chipset_pipeline_release/opensource/component_code/vendor/huawei/extra/build/build_script/kirin_kernel_release/kernel/include/linux/list_bl.h"
	.file 99 "/mnt/disk/jenkins/ci/workspace/chipset_pipeline_release/opensource/component_code/vendor/huawei/extra/build/build_script/kirin_kernel_release/kernel/include/linux/lockref.h"
	.file 100 "/mnt/disk/jenkins/ci/workspace/chipset_pipeline_release/opensource/component_code/vendor/huawei/extra/build/build_script/kirin_kernel_release/kernel/include/linux/dcache.h"
	.file 101 "/mnt/disk/jenkins/ci/workspace/chipset_pipeline_release/opensource/component_code/vendor/huawei/extra/build/build_script/kirin_kernel_release/kernel/include/linux/path.h"
	.file 102 "/mnt/disk/jenkins/ci/workspace/chipset_pipeline_release/opensource/component_code/vendor/huawei/extra/build/build_script/kirin_kernel_release/kernel/include/linux/shrinker.h"
	.file 103 "/mnt/disk/jenkins/ci/workspace/chipset_pipeline_release/opensource/component_code/vendor/huawei/extra/build/build_script/kirin_kernel_release/kernel/include/linux/list_lru.h"
	.file 104 "/mnt/disk/jenkins/ci/workspace/chipset_pipeline_release/opensource/component_code/vendor/huawei/extra/build/build_script/kirin_kernel_release/kernel/include/linux/radix-tree.h"
	.file 105 "/mnt/disk/jenkins/ci/workspace/chipset_pipeline_release/opensource/component_code/vendor/huawei/extra/build/build_script/kirin_kernel_release/kernel/include/uapi/linux/fiemap.h"
	.file 106 "/mnt/disk/jenkins/ci/workspace/chipset_pipeline_release/opensource/component_code/vendor/huawei/extra/build/build_script/kirin_kernel_release/kernel/include/linux/migrate_mode.h"
	.file 107 "/mnt/disk/jenkins/ci/workspace/chipset_pipeline_release/opensource/component_code/vendor/huawei/extra/build/build_script/kirin_kernel_release/kernel/include/linux/bvec.h"
	.file 108 "/mnt/disk/jenkins/ci/workspace/chipset_pipeline_release/opensource/component_code/vendor/huawei/extra/build/build_script/kirin_kernel_release/kernel/include/linux/blk_types.h"
	.file 109 "/mnt/disk/jenkins/ci/workspace/chipset_pipeline_release/opensource/component_code/vendor/huawei/extra/build/build_script/kirin_kernel_release/kernel/include/linux/delayed_call.h"
	.file 110 "/mnt/disk/jenkins/ci/workspace/chipset_pipeline_release/opensource/component_code/vendor/huawei/extra/build/build_script/kirin_kernel_release/kernel/include/linux/percpu_counter.h"
	.file 111 "/mnt/disk/jenkins/ci/workspace/chipset_pipeline_release/opensource/component_code/vendor/huawei/extra/build/build_script/kirin_kernel_release/kernel/include/linux/quota.h"
	.file 112 "/mnt/disk/jenkins/ci/workspace/chipset_pipeline_release/opensource/component_code/vendor/huawei/extra/build/build_script/kirin_kernel_release/kernel/include/linux/projid.h"
	.file 113 "/mnt/disk/jenkins/ci/workspace/chipset_pipeline_release/opensource/component_code/vendor/huawei/extra/build/build_script/kirin_kernel_release/kernel/include/linux/uio.h"
	.file 114 "/mnt/disk/jenkins/ci/workspace/chipset_pipeline_release/opensource/component_code/vendor/huawei/extra/build/build_script/kirin_kernel_release/kernel/include/linux/genhd.h"
	.file 115 "/mnt/disk/jenkins/ci/workspace/chipset_pipeline_release/opensource/component_code/vendor/huawei/extra/build/build_script/kirin_kernel_release/kernel/include/linux/nfs_fs_i.h"
	.file 116 "/mnt/disk/jenkins/ci/workspace/chipset_pipeline_release/opensource/component_code/vendor/huawei/extra/build/build_script/kirin_kernel_release/kernel/include/linux/poll.h"
	.file 117 "/mnt/disk/jenkins/ci/workspace/chipset_pipeline_release/opensource/component_code/vendor/huawei/extra/build/build_script/kirin_kernel_release/kernel/include/linux/vmstat.h"
	.file 118 "/mnt/disk/jenkins/ci/workspace/chipset_pipeline_release/opensource/component_code/vendor/huawei/extra/build/build_script/kirin_kernel_release/kernel/include/linux/mempool.h"
	.file 119 "/mnt/disk/jenkins/ci/workspace/chipset_pipeline_release/opensource/component_code/vendor/huawei/extra/build/build_script/kirin_kernel_release/kernel/include/linux/klist.h"
	.file 120 "/mnt/disk/jenkins/ci/workspace/chipset_pipeline_release/opensource/component_code/vendor/huawei/extra/build/build_script/kirin_kernel_release/kernel/include/linux/pinctrl/devinfo.h"
	.file 121 "/mnt/disk/jenkins/ci/workspace/chipset_pipeline_release/opensource/component_code/vendor/huawei/extra/build/build_script/kirin_kernel_release/kernel/include/linux/pm.h"
	.file 122 "/mnt/disk/jenkins/ci/workspace/chipset_pipeline_release/opensource/component_code/vendor/huawei/extra/build/build_script/kirin_kernel_release/kernel/include/linux/device.h"
	.file 123 "/mnt/disk/jenkins/ci/workspace/chipset_pipeline_release/opensource/component_code/vendor/huawei/extra/build/build_script/kirin_kernel_release/kernel/include/linux/pm_wakeup.h"
	.file 124 "/mnt/disk/jenkins/ci/workspace/chipset_pipeline_release/opensource/component_code/vendor/huawei/extra/build/build_script/kirin_kernel_release/kernel/arch/arm64/include/asm/device.h"
	.file 125 "/mnt/disk/jenkins/ci/workspace/chipset_pipeline_release/opensource/component_code/vendor/huawei/extra/build/build_script/kirin_kernel_release/kernel/include/linux/flex_proportions.h"
	.file 126 "/mnt/disk/jenkins/ci/workspace/chipset_pipeline_release/opensource/component_code/vendor/huawei/extra/build/build_script/kirin_kernel_release/kernel/include/linux/bsg.h"
	.file 127 "/mnt/disk/jenkins/ci/workspace/chipset_pipeline_release/opensource/component_code/vendor/huawei/extra/build/build_script/kirin_kernel_release/kernel/include/linux/wbt.h"
	.file 128 "/mnt/disk/jenkins/ci/workspace/chipset_pipeline_release/opensource/component_code/vendor/huawei/extra/build/build_script/kirin_kernel_release/kernel/block/blk-mq.h"
	.file 129 "/mnt/disk/jenkins/ci/workspace/chipset_pipeline_release/opensource/component_code/vendor/huawei/extra/build/build_script/kirin_kernel_release/kernel/include/linux/elevator.h"
	.file 130 "/mnt/disk/jenkins/ci/workspace/chipset_pipeline_release/opensource/component_code/vendor/huawei/extra/build/build_script/kirin_kernel_release/kernel/include/linux/blk-mq.h"
	.file 131 "/mnt/disk/jenkins/ci/workspace/chipset_pipeline_release/opensource/component_code/vendor/huawei/extra/build/build_script/kirin_kernel_release/kernel/block/hisi-blk.h"
	.file 132 "/mnt/disk/jenkins/ci/workspace/chipset_pipeline_release/opensource/component_code/vendor/huawei/extra/build/build_script/kirin_kernel_release/kernel/block/blk.h"
	.file 133 "/mnt/disk/jenkins/ci/workspace/chipset_pipeline_release/opensource/component_code/vendor/huawei/extra/build/build_script/kirin_kernel_release/kernel/include/linux/sbitmap.h"
	.file 134 "/mnt/disk/jenkins/ci/workspace/chipset_pipeline_release/opensource/component_code/vendor/huawei/extra/build/build_script/kirin_kernel_release/kernel/include/uapi/linux/uio.h"
	.file 135 "/mnt/disk/jenkins/ci/workspace/chipset_pipeline_release/opensource/component_code/vendor/huawei/extra/build/build_script/kirin_kernel_release/kernel/include/linux/hisi/hisi_powerkey_event.h"
	.file 136 "/mnt/disk/jenkins/ci/workspace/chipset_pipeline_release/opensource/component_code/vendor/huawei/extra/build/build_script/kirin_kernel_release/kernel/drivers/hisi/ap/platform/hi6250/mntn_public_interface.h"
	.file 137 "/mnt/disk/jenkins/ci/workspace/chipset_pipeline_release/opensource/component_code/vendor/huawei/extra/build/build_script/kirin_kernel_release/kernel/include/linux/jiffies.h"
	.file 138 "/mnt/disk/jenkins/ci/workspace/chipset_pipeline_release/opensource/component_code/vendor/huawei/extra/build/build_script/kirin_kernel_release/kernel/arch/arm64/include/asm/cachetype.h"
	.file 139 "/mnt/disk/jenkins/ci/workspace/chipset_pipeline_release/opensource/component_code/vendor/huawei/extra/build/build_script/kirin_kernel_release/kernel/include/linux/printk.h"
	.file 140 "/mnt/disk/jenkins/ci/workspace/chipset_pipeline_release/opensource/component_code/vendor/huawei/extra/build/build_script/kirin_kernel_release/kernel/include/linux/kernel.h"
	.file 141 "/mnt/disk/jenkins/ci/workspace/chipset_pipeline_release/opensource/component_code/vendor/huawei/extra/build/build_script/kirin_kernel_release/kernel/arch/arm64/include/asm/stack_pointer.h"
	.file 142 "/mnt/disk/jenkins/ci/workspace/chipset_pipeline_release/opensource/component_code/vendor/huawei/extra/build/build_script/kirin_kernel_release/kernel/arch/arm64/include/asm/hwcap.h"
	.file 143 "/mnt/disk/jenkins/ci/workspace/chipset_pipeline_release/opensource/component_code/vendor/huawei/extra/build/build_script/kirin_kernel_release/kernel/arch/arm64/include/asm/cpufeature.h"
	.file 144 "/mnt/disk/jenkins/ci/workspace/chipset_pipeline_release/opensource/component_code/vendor/huawei/extra/build/build_script/kirin_kernel_release/kernel/arch/arm64/include/asm/virt.h"
	.file 145 "/mnt/disk/jenkins/ci/workspace/chipset_pipeline_release/opensource/component_code/vendor/huawei/extra/build/build_script/kirin_kernel_release/kernel/arch/arm64/include/asm/arch_timer.h"
	.file 146 "/mnt/disk/jenkins/ci/workspace/chipset_pipeline_release/opensource/component_code/vendor/huawei/extra/build/build_script/kirin_kernel_release/kernel/include/linux/highuid.h"
	.file 147 "/mnt/disk/jenkins/ci/workspace/chipset_pipeline_release/opensource/component_code/vendor/huawei/extra/build/build_script/kirin_kernel_release/kernel/arch/arm64/include/asm/memory.h"
	.file 148 "/mnt/disk/jenkins/ci/workspace/chipset_pipeline_release/opensource/component_code/vendor/huawei/extra/build/build_script/kirin_kernel_release/kernel/include/asm-generic/percpu.h"
	.file 149 "/mnt/disk/jenkins/ci/workspace/chipset_pipeline_release/opensource/component_code/vendor/huawei/extra/build/build_script/kirin_kernel_release/kernel/include/linux/debug_locks.h"
	.file 150 "/mnt/disk/jenkins/ci/workspace/chipset_pipeline_release/opensource/component_code/vendor/huawei/extra/build/build_script/kirin_kernel_release/kernel/include/asm-generic/pgtable.h"
	.file 151 "/mnt/disk/jenkins/ci/workspace/chipset_pipeline_release/opensource/component_code/vendor/huawei/extra/build/build_script/kirin_kernel_release/kernel/arch/arm64/include/asm/irq.h"
	.file 152 "/mnt/disk/jenkins/ci/workspace/chipset_pipeline_release/opensource/component_code/vendor/huawei/extra/build/build_script/kirin_kernel_release/kernel/arch/arm64/include/asm/hardirq.h"
	.file 153 "/mnt/disk/jenkins/ci/workspace/chipset_pipeline_release/opensource/component_code/vendor/huawei/extra/build/build_script/kirin_kernel_release/kernel/include/linux/slab.h"
	.file 154 "/mnt/disk/jenkins/ci/workspace/chipset_pipeline_release/opensource/component_code/vendor/huawei/extra/build/build_script/kirin_kernel_release/kernel/include/trace/events/block.h"
	.file 155 "/mnt/disk/jenkins/ci/workspace/chipset_pipeline_release/opensource/component_code/vendor/huawei/extra/build/build_script/kirin_kernel_release/kernel/include/linux/spinlock_api_smp.h"
	.section	.note.GNU-stack,"",%progbits
